; Function Attrs: nounwind uwtable
define ptr @l_Lake_Glob_forEachModuleIn___rarg___lambda__2(ptr noundef %0, ptr noundef %1, ptr noundef %2, ptr noundef %3, ptr noundef %4, ptr noundef readnone captures(none) %5) local_unnamed_addr #0 {
  %7 = load ptr, ptr @l_Lake_Glob_forEachModuleIn___rarg___lambda__2___closed__1, align 8, !tbaa !4
  %8 = tail call ptr @l_Lean_modToFilePath(ptr noundef %0, ptr noundef %1, ptr noundef %7) #4
  tail call void @lean_inc_heartbeat() #4
  %9 = tail call noalias ptr @mi_malloc_small(i64 noundef 40) #4
  %10 = icmp eq ptr %9, null
  br i1 %10, label %11, label %lean_alloc_closure.exit

11:                                               ; preds = %6
  tail call void @lean_internal_panic_out_of_memory() #5
  unreachable

lean_alloc_closure.exit:                          ; preds = %6
  %12 = getelementptr inbounds nuw i8, ptr %9, i64 4
  store i32 1, ptr %9, align 4, !tbaa !8
  store i32 -184549336, ptr %12, align 4
  %13 = getelementptr inbounds nuw i8, ptr %9, i64 8
  store ptr @l_Lake_Glob_forEachModuleIn___rarg___lambda__1, ptr %13, align 8, !tbaa !4
  %14 = getelementptr inbounds nuw i8, ptr %9, i64 16
  store i16 3, ptr %14, align 8, !tbaa !15
  %15 = getelementptr inbounds nuw i8, ptr %9, i64 18
  store i16 2, ptr %15, align 2, !tbaa !15
  %16 = getelementptr inbounds nuw i8, ptr %9, i64 24
  store ptr %1, ptr %16, align 8, !tbaa !4
  %17 = getelementptr inbounds nuw i8, ptr %9, i64 32
  store ptr %2, ptr %17, align 8, !tbaa !4
  %18 = tail call ptr @l_Lean_forEachModuleInDir___rarg(ptr noundef %3, ptr noundef %4, ptr noundef %8, ptr noundef nonnull %9) #4
  ret ptr %18
}